target datalayout = "e-m:e-p270:32:32-p271:32:32-p272:64:64-i64:64-i128:128-f80:128-n8:16:32:64-S128"
target triple = "x86_64-pc-linux-gnu"

%struct._packet_info = type { ptr, ptr, i32, i32, %struct.nstime_t, %struct.nstime_t, %struct.nstime_t, i8, ptr, ptr, ptr, ptr, %struct._address, %struct._address, %struct._address, %struct._address, %struct._address, %struct._address, i32, ptr, i8, [3 x i8], %struct.anon, i32, i32, i32, i32, ptr, i8, ptr, ptr, i16, i16, i32, i32, i16, i32, i32, ptr, ptr, ptr, i8, i8, i16, i16, i16, i32, i16, i16, ptr, ptr, ptr, ptr, ptr, i32, i32 }
%struct.nstime_t = type { i64, i32 }
%struct._address = type { i32, i32, ptr, ptr }
%struct.anon = type { i8, [3 x i8] }

@reassemble_over_tcp = internal global i8 1, align 1

; Function Attrs: null_pointer_is_valid sspstrong uwtable
define internal i32 @dissect_smpp(ptr noundef %0, ptr noundef %1, ptr noundef %2, ptr noundef %3) #0 {
  %5 = alloca i32, align 4
  %6 = alloca ptr, align 8
  %7 = alloca ptr, align 8
  %8 = alloca ptr, align 8
  %9 = alloca ptr, align 8
  %10 = alloca i32, align 4
  %11 = alloca i16, align 2
  %12 = alloca i32, align 4
  %13 = alloca ptr, align 8
  %14 = alloca i32, align 4
  store ptr %0, ptr %6, align 8
  store ptr %1, ptr %7, align 8
  store ptr %2, ptr %8, align 8
  store ptr %3, ptr %9, align 8
  %15 = load ptr, ptr %7, align 8
  %16 = getelementptr inbounds nuw %struct._packet_info, ptr %15, i32 0, i32 23
  %17 = load i32, ptr %16, align 8
  %18 = icmp eq i32 %17, 2
  br i1 %18, label %19, label %32

19:                                               ; preds = %4
  %20 = load ptr, ptr %7, align 8
  %21 = load ptr, ptr %6, align 8
  %22 = load ptr, ptr %9, align 8
  %23 = call zeroext i1 @test_smpp(ptr noundef %20, ptr noundef %21, i32 noundef 0, ptr noundef %22)
  br i1 %23, label %25, label %24

24:                                               ; preds = %19
  store i32 0, ptr %5, align 4
  br label %90

25:                                               ; preds = %19
  %26 = load ptr, ptr %6, align 8
  %27 = load ptr, ptr %7, align 8
  %28 = load ptr, ptr %8, align 8
  %29 = load i8, ptr @reassemble_over_tcp, align 1, !range !6, !noundef !7
  %30 = trunc i8 %29 to i1
  %31 = load ptr, ptr %9, align 8
  call void @tcp_dissect_pdus(ptr noundef %26, ptr noundef %27, ptr noundef %28, i1 noundef zeroext %30, i32 noundef 16, ptr noundef @get_smpp_pdu_len, ptr noundef @dissect_smpp_pdu, ptr noundef %31)
  br label %87

32:                                               ; preds = %4
  call void @llvm.lifetime.start.p0(i64 4, ptr %10) #10
  store i32 0, ptr %10, align 4
  br label %33

33:                                               ; preds = %82, %32
  %34 = load ptr, ptr %6, align 8
  %35 = load i32, ptr %10, align 4
  %36 = call i32 @tvb_reported_length_remaining(ptr noundef %34, i32 noundef %35)
  %37 = icmp sgt i32 %36, 0
  br i1 %37, label %38, label %83

38:                                               ; preds = %33
  call void @llvm.lifetime.start.p0(i64 2, ptr %11) #10
  %39 = load ptr, ptr %6, align 8
  %40 = load i32, ptr %10, align 4
  %41 = call i32 @tvb_get_ntohl(ptr noundef %39, i32 noundef %40)
  %42 = trunc i32 %41 to i16
  store i16 %42, ptr %11, align 2
  call void @llvm.lifetime.start.p0(i64 4, ptr %12) #10
  %43 = load ptr, ptr %6, align 8
  %44 = load i32, ptr %10, align 4
  %45 = call i32 @tvb_captured_length_remaining(ptr noundef %43, i32 noundef %44)
  store i32 %45, ptr %12, align 4
  call void @llvm.lifetime.start.p0(i64 8, ptr %13) #10
  %46 = load i16, ptr %11, align 2
  %47 = zext i16 %46 to i32
  %48 = icmp slt i32 %47, 1
  br i1 %48, label %49, label %51

49:                                               ; preds = %38
  %50 = load i32, ptr %10, align 4
  store i32 %50, ptr %5, align 4
  store i32 1, ptr %14, align 4
  br label %80

51:                                               ; preds = %38
  %52 = load i32, ptr %12, align 4
  %53 = icmp sle i32 %52, 0
  br i1 %53, label %54, label %56

54:                                               ; preds = %51
  %55 = load i32, ptr %10, align 4
  store i32 %55, ptr %5, align 4
  store i32 1, ptr %14, align 4
  br label %80

56:                                               ; preds = %51
  %57 = load i32, ptr %12, align 4
  %58 = load i16, ptr %11, align 2
  %59 = zext i16 %58 to i32
  %60 = icmp sgt i32 %57, %59
  br i1 %60, label %61, label %64

61:                                               ; preds = %56
  %62 = load i16, ptr %11, align 2
  %63 = zext i16 %62 to i32
  store i32 %63, ptr %12, align 4
  br label %64

64:                                               ; preds = %61, %56
  %65 = load ptr, ptr %6, align 8
  %66 = load i32, ptr %10, align 4
  %67 = load i32, ptr %12, align 4
  %68 = load i16, ptr %11, align 2
  %69 = zext i16 %68 to i32
  %70 = call ptr @tvb_new_subset_length_caplen(ptr noundef %65, i32 noundef %66, i32 noundef %67, i32 noundef %69)
  store ptr %70, ptr %13, align 8
  %71 = load ptr, ptr %13, align 8
  %72 = load ptr, ptr %7, align 8
  %73 = load ptr, ptr %8, align 8
  %74 = load ptr, ptr %9, align 8
  %75 = call i32 @dissect_smpp_pdu(ptr noundef %71, ptr noundef %72, ptr noundef %73, ptr noundef %74)
  %76 = load i16, ptr %11, align 2
  %77 = zext i16 %76 to i32
  %78 = load i32, ptr %10, align 4
  %79 = add i32 %78, %77
  store i32 %79, ptr %10, align 4
  store i32 0, ptr %14, align 4
  br label %80

80:                                               ; preds = %64, %54, %49
  call void @llvm.lifetime.end.p0(i64 8, ptr %13) #10
  call void @llvm.lifetime.end.p0(i64 4, ptr %12) #10
  call void @llvm.lifetime.end.p0(i64 2, ptr %11) #10
  %81 = load i32, ptr %14, align 4
  switch i32 %81, label %84 [
    i32 0, label %82
  ]

82:                                               ; preds = %80
  br label %33, !llvm.loop !8

83:                                               ; preds = %33
  store i32 0, ptr %14, align 4
  br label %84

84:                                               ; preds = %83, %80
  call void @llvm.lifetime.end.p0(i64 4, ptr %10) #10
  %85 = load i32, ptr %14, align 4
  switch i32 %85, label %92 [
    i32 0, label %86
    i32 1, label %90
  ]

86:                                               ; preds = %84
  br label %87

87:                                               ; preds = %86, %25
  %88 = load ptr, ptr %6, align 8
  %89 = call i32 @tvb_captured_length(ptr noundef %88)
  store i32 %89, ptr %5, align 4
  br label %90

90:                                               ; preds = %87, %84, %24
  %91 = load i32, ptr %5, align 4
  ret i32 %91

92:                                               ; preds = %84
  unreachable
}