; Function Attrs: null_pointer_is_valid sspstrong uwtable
define internal i32 @dissect_smpp(ptr noundef %0, ptr noundef %1, ptr noundef %2, ptr noundef %3) #0 {
  %5 = getelementptr inbounds nuw i8, ptr %1, i64 280
  %6 = load i32, ptr %5, align 8
  %7 = icmp eq i32 %6, 2
  br i1 %7, label %10, label %.preheader

.preheader:                                       ; preds = %4
  %8 = tail call i32 @tvb_reported_length_remaining(ptr noundef %0, i32 noundef 0)
  %9 = icmp sgt i32 %8, 0
  br i1 %9, label %.lr.ph, label %.thread44

10:                                               ; preds = %4
  %11 = tail call fastcc zeroext i1 @test_smpp(ptr noundef %0)
  br i1 %11, label %12, label %.loopexit

12:                                               ; preds = %10
  %13 = load i8, ptr @reassemble_over_tcp, align 1, !range !6, !noundef !7
  %14 = trunc nuw i8 %13 to i1
  tail call void @tcp_dissect_pdus(ptr noundef %0, ptr noundef %1, ptr noundef %2, i1 noundef zeroext %14, i32 noundef 16, ptr noundef nonnull @get_smpp_pdu_len, ptr noundef nonnull @dissect_smpp_pdu, ptr noundef %3)
  br label %.thread44

.lr.ph:                                           ; preds = %.preheader, %20
  %.03748 = phi i32 [ %23, %20 ], [ 0, %.preheader ]
  %15 = tail call i32 @tvb_get_ntohl(ptr noundef %0, i32 noundef %.03748)
  %16 = tail call i32 @tvb_captured_length_remaining(ptr noundef %0, i32 noundef %.03748)
  %17 = and i32 %15, 65535
  %18 = icmp eq i32 %17, 0
  %19 = icmp slt i32 %16, 1
  %or.cond = select i1 %18, i1 true, i1 %19
  br i1 %or.cond, label %.loopexit, label %20

20:                                               ; preds = %.lr.ph
  %spec.select = tail call i32 @llvm.umin.i32(i32 %16, i32 %17)
  %21 = tail call ptr @tvb_new_subset_length_caplen(ptr noundef %0, i32 noundef %.03748, i32 noundef %spec.select, i32 noundef %17)
  %22 = tail call i32 @dissect_smpp_pdu(ptr noundef %21, ptr noundef %1, ptr noundef %2, ptr poison)
  %23 = add i32 %17, %.03748
  %24 = tail call i32 @tvb_reported_length_remaining(ptr noundef %0, i32 noundef %23)
  %25 = icmp sgt i32 %24, 0
  br i1 %25, label %.lr.ph, label %.thread44, !llvm.loop !8

.thread44:                                        ; preds = %20, %.preheader, %12
  %26 = tail call i32 @tvb_captured_length(ptr noundef %0)
  br label %.loopexit

.loopexit:                                        ; preds = %.lr.ph, %10, %.thread44
  %.034 = phi i32 [ %26, %.thread44 ], [ 0, %10 ], [ %.03748, %.lr.ph ]
  ret i32 %.034
}